target datalayout = "e-m:e-p270:32:32-p271:32:32-p272:64:64-i64:64-i128:128-f80:128-n8:16:32:64-S128"
target triple = "x86_64-pc-linux-gnu"

@hf_rsl_ie_id = internal global i32 0, align 4
@hf_rsl_ie_length = internal global i32 0, align 4
@hf_rsl_extension_bit = internal global i32 0, align 4
@hf_rsl_command = internal global i32 0, align 4
@hf_rsl_command_ext = internal global i32 0, align 4
@ett_ie_cmd_ind = internal global i32 0, align 4
@.str.789 = private unnamed_addr constant [21 x i8] c"Command indicator IE\00", align 1
@.str.790 = private unnamed_addr constant [9 x i8] c" (Start)\00", align 1
@.str.791 = private unnamed_addr constant [8 x i8] c" (Stop)\00", align 1
@.str.792 = private unnamed_addr constant [34 x i8] c" (reserved for international use)\00", align 1
@.str.793 = private unnamed_addr constant [29 x i8] c" (reserved for national use)\00", align 1

; Function Attrs: null_pointer_is_valid sspstrong uwtable
define internal i32 @dissect_rsl_ie_cmd_ind(ptr noundef %0, ptr noundef %1, ptr noundef %2, i32 noundef %3, i1 noundef zeroext %4) #0 {
  %6 = alloca i32, align 4
  %7 = alloca ptr, align 8
  %8 = alloca ptr, align 8
  %9 = alloca ptr, align 8
  %10 = alloca i32, align 4
  %11 = alloca i8, align 1
  %12 = alloca ptr, align 8
  %13 = alloca ptr, align 8
  %14 = alloca i32, align 4
  %15 = alloca i8, align 1
  %16 = alloca i8, align 1
  %17 = alloca i32, align 4
  %18 = alloca ptr, align 8
  %19 = alloca i32, align 4
  store ptr %0, ptr %7, align 8
  store ptr %1, ptr %8, align 8
  store ptr %2, ptr %9, align 8
  store i32 %3, ptr %10, align 4
  %20 = zext i1 %4 to i8
  store i8 %20, ptr %11, align 1
  call void @llvm.lifetime.start.p0(i64 8, ptr %12) #6
  call void @llvm.lifetime.start.p0(i64 8, ptr %13) #6
  call void @llvm.lifetime.start.p0(i64 4, ptr %14) #6
  call void @llvm.lifetime.start.p0(i64 1, ptr %15) #6
  call void @llvm.lifetime.start.p0(i64 1, ptr %16) #6
  %21 = load i8, ptr %11, align 1, !range !6, !noundef !7
  %22 = trunc i8 %21 to i1
  %23 = zext i1 %22 to i32
  %24 = icmp eq i32 %23, 0
  br i1 %24, label %25, label %35

25:                                               ; preds = %5
  %26 = load ptr, ptr %7, align 8
  %27 = load i32, ptr %10, align 4
  %28 = call zeroext i8 @tvb_get_uint8(ptr noundef %26, i32 noundef %27)
  store i8 %28, ptr %15, align 1
  %29 = load i8, ptr %15, align 1
  %30 = zext i8 %29 to i32
  %31 = icmp ne i32 %30, 50
  br i1 %31, label %32, label %34

32:                                               ; preds = %25
  %33 = load i32, ptr %10, align 4
  store i32 %33, ptr %6, align 4
  store i32 1, ptr %17, align 4
  br label %106

34:                                               ; preds = %25
  br label %35

35:                                               ; preds = %34, %5
  %36 = load ptr, ptr %9, align 8
  %37 = load ptr, ptr %7, align 8
  %38 = load i32, ptr %10, align 4
  %39 = load i32, ptr @ett_ie_cmd_ind, align 4
  %40 = call ptr @proto_tree_add_subtree(ptr noundef %36, ptr noundef %37, i32 noundef %38, i32 noundef 1, i32 noundef %39, ptr noundef %12, ptr noundef @.str.789)
  store ptr %40, ptr %13, align 8
  %41 = load ptr, ptr %13, align 8
  %42 = load i32, ptr @hf_rsl_ie_id, align 4
  %43 = load ptr, ptr %7, align 8
  %44 = load i32, ptr %10, align 4
  %45 = call ptr @proto_tree_add_item(ptr noundef %41, i32 noundef %42, ptr noundef %43, i32 noundef %44, i32 noundef 1, i32 noundef 0)
  %46 = load i32, ptr %10, align 4
  %47 = add i32 %46, 1
  store i32 %47, ptr %10, align 4
  %48 = load ptr, ptr %7, align 8
  %49 = load i32, ptr %10, align 4
  %50 = call zeroext i8 @tvb_get_uint8(ptr noundef %48, i32 noundef %49)
  %51 = zext i8 %50 to i32
  store i32 %51, ptr %14, align 4
  %52 = load ptr, ptr %12, align 8
  %53 = load i32, ptr %14, align 4
  %54 = add i32 %53, 2
  call void @proto_item_set_len(ptr noundef %52, i32 noundef %54)
  %55 = load ptr, ptr %13, align 8
  %56 = load i32, ptr @hf_rsl_ie_length, align 4
  %57 = load ptr, ptr %7, align 8
  %58 = load i32, ptr %10, align 4
  %59 = call ptr @proto_tree_add_item(ptr noundef %55, i32 noundef %56, ptr noundef %57, i32 noundef %58, i32 noundef 1, i32 noundef 0)
  %60 = load i32, ptr %10, align 4
  %61 = add i32 %60, 1
  store i32 %61, ptr %10, align 4
  %62 = load ptr, ptr %13, align 8
  %63 = load i32, ptr @hf_rsl_extension_bit, align 4
  %64 = load ptr, ptr %7, align 8
  %65 = load i32, ptr %10, align 4
  %66 = call ptr @proto_tree_add_item_ret_boolean(ptr noundef %62, i32 noundef %63, ptr noundef %64, i32 noundef %65, i32 noundef 1, i32 noundef 0, ptr noundef %16)
  %67 = load i8, ptr %16, align 1, !range !6, !noundef !7
  %68 = trunc i8 %67 to i1
  br i1 %68, label %69, label %77

69:                                               ; preds = %35
  %70 = load ptr, ptr %13, align 8
  %71 = load i32, ptr @hf_rsl_command_ext, align 4
  %72 = load ptr, ptr %7, align 8
  %73 = load i32, ptr %10, align 4
  %74 = call ptr @proto_tree_add_item(ptr noundef %70, i32 noundef %71, ptr noundef %72, i32 noundef %73, i32 noundef 2, i32 noundef 0)
  %75 = load i32, ptr %10, align 4
  %76 = add i32 %75, 2
  store i32 %76, ptr %10, align 4
  br label %104

77:                                               ; preds = %35
  call void @llvm.lifetime.start.p0(i64 8, ptr %18) #6
  call void @llvm.lifetime.start.p0(i64 4, ptr %19) #6
  %78 = load ptr, ptr %13, align 8
  %79 = load i32, ptr @hf_rsl_command, align 4
  %80 = load ptr, ptr %7, align 8
  %81 = load i32, ptr %10, align 4
  %82 = call ptr @proto_tree_add_item_ret_uint(ptr noundef %78, i32 noundef %79, ptr noundef %80, i32 noundef %81, i32 noundef 1, i32 noundef 0, ptr noundef %19)
  store ptr %82, ptr %18, align 8
  %83 = load i32, ptr %10, align 4
  %84 = add i32 %83, 1
  store i32 %84, ptr %10, align 4
  %85 = load i32, ptr %19, align 4
  %86 = icmp eq i32 %85, 0
  br i1 %86, label %87, label %89

87:                                               ; preds = %77
  %88 = load ptr, ptr %18, align 8
  call void (ptr, ptr, ...) @proto_item_append_text(ptr noundef %88, ptr noundef @.str.790)
  br label %103

89:                                               ; preds = %77
  %90 = load i32, ptr %19, align 4
  %91 = icmp eq i32 %90, 1
  br i1 %91, label %92, label %94

92:                                               ; preds = %89
  %93 = load ptr, ptr %18, align 8
  call void (ptr, ptr, ...) @proto_item_append_text(ptr noundef %93, ptr noundef @.str.791)
  br label %102

94:                                               ; preds = %89
  %95 = load i32, ptr %19, align 4
  %96 = icmp ule i32 %95, 64
  br i1 %96, label %97, label %99

97:                                               ; preds = %94
  %98 = load ptr, ptr %18, align 8
  call void (ptr, ptr, ...) @proto_item_append_text(ptr noundef %98, ptr noundef @.str.792)
  br label %101

99:                                               ; preds = %94
  %100 = load ptr, ptr %18, align 8
  call void (ptr, ptr, ...) @proto_item_append_text(ptr noundef %100, ptr noundef @.str.793)
  br label %101

101:                                              ; preds = %99, %97
  br label %102

102:                                              ; preds = %101, %92
  br label %103

103:                                              ; preds = %102, %87
  call void @llvm.lifetime.end.p0(i64 4, ptr %19) #6
  call void @llvm.lifetime.end.p0(i64 8, ptr %18) #6
  br label %104

104:                                              ; preds = %103, %69
  %105 = load i32, ptr %10, align 4
  store i32 %105, ptr %6, align 4
  store i32 1, ptr %17, align 4
  br label %106

106:                                              ; preds = %104, %32
  call void @llvm.lifetime.end.p0(i64 1, ptr %16) #6
  call void @llvm.lifetime.end.p0(i64 1, ptr %15) #6
  call void @llvm.lifetime.end.p0(i64 4, ptr %14) #6
  call void @llvm.lifetime.end.p0(i64 8, ptr %13) #6
  call void @llvm.lifetime.end.p0(i64 8, ptr %12) #6
  %107 = load i32, ptr %6, align 4
  ret i32 %107
}