; Function Attrs: null_pointer_is_valid sspstrong uwtable
define internal fastcc noundef i32 @dissect_rsl_ie_cmd_ind(ptr noundef %0, ptr noundef %1, i32 noundef %2) unnamed_addr #0 {
  %4 = alloca ptr, align 8
  %5 = alloca i8, align 1
  %6 = alloca i32, align 4
  call void @llvm.lifetime.start.p0(i64 8, ptr nonnull %4) #6
  call void @llvm.lifetime.start.p0(i64 1, ptr nonnull %5) #6
  %7 = load i32, ptr @ett_ie_cmd_ind, align 4
  %8 = call ptr @proto_tree_add_subtree(ptr noundef %1, ptr noundef %0, i32 noundef %2, i32 noundef 1, i32 noundef %7, ptr noundef nonnull %4, ptr noundef nonnull @.str.789)
  %9 = load i32, ptr @hf_rsl_ie_id, align 4
  %10 = call ptr @proto_tree_add_item(ptr noundef %8, i32 noundef %9, ptr noundef %0, i32 noundef %2, i32 noundef 1, i32 noundef 0)
  %11 = add i32 %2, 1
  %12 = call zeroext i8 @tvb_get_uint8(ptr noundef %0, i32 noundef %11)
  %13 = zext i8 %12 to i32
  %14 = load ptr, ptr %4, align 8
  %15 = add nuw nsw i32 %13, 2
  call void @proto_item_set_len(ptr noundef %14, i32 noundef %15)
  %16 = load i32, ptr @hf_rsl_ie_length, align 4
  %17 = call ptr @proto_tree_add_item(ptr noundef %8, i32 noundef %16, ptr noundef %0, i32 noundef %11, i32 noundef 1, i32 noundef 0)
  %18 = add i32 %2, 2
  %19 = load i32, ptr @hf_rsl_extension_bit, align 4
  %20 = call ptr @proto_tree_add_item_ret_boolean(ptr noundef %8, i32 noundef %19, ptr noundef %0, i32 noundef %18, i32 noundef 1, i32 noundef 0, ptr noundef nonnull %5)
  %21 = load i8, ptr %5, align 1, !range !6, !noundef !7
  %22 = trunc nuw i8 %21 to i1
  br i1 %22, label %23, label %27

23:                                               ; preds = %3
  %24 = load i32, ptr @hf_rsl_command_ext, align 4
  %25 = call ptr @proto_tree_add_item(ptr noundef %8, i32 noundef %24, ptr noundef %0, i32 noundef %18, i32 noundef 2, i32 noundef 0)
  %26 = add i32 %2, 4
  br label %36

27:                                               ; preds = %3
  call void @llvm.lifetime.start.p0(i64 4, ptr nonnull %6) #6
  %28 = load i32, ptr @hf_rsl_command, align 4
  %29 = call ptr @proto_tree_add_item_ret_uint(ptr noundef %8, i32 noundef %28, ptr noundef %0, i32 noundef %18, i32 noundef 1, i32 noundef 0, ptr noundef nonnull %6)
  %30 = add i32 %2, 3
  %31 = load i32, ptr %6, align 4
  switch i32 %31, label %33 [
    i32 0, label %35
    i32 1, label %32
  ]

32:                                               ; preds = %27
  br label %35

33:                                               ; preds = %27
  %34 = icmp ult i32 %31, 65
  %.str.792..str.793 = select i1 %34, ptr @.str.792, ptr @.str.793
  br label %35

35:                                               ; preds = %33, %27, %32
  %.str.791.sink = phi ptr [ @.str.791, %32 ], [ @.str.790, %27 ], [ %.str.792..str.793, %33 ]
  call void (ptr, ptr, ...) @proto_item_append_text(ptr noundef %29, ptr noundef nonnull %.str.791.sink)
  call void @llvm.lifetime.end.p0(i64 4, ptr nonnull %6) #6
  br label %36

36:                                               ; preds = %23, %35
  %.035 = phi i32 [ %26, %23 ], [ %30, %35 ]
  call void @llvm.lifetime.end.p0(i64 1, ptr nonnull %5) #6
  call void @llvm.lifetime.end.p0(i64 8, ptr nonnull %4) #6
  ret i32 %.035
}